; Function Attrs: mustprogress nofree norecurse nosync nounwind willreturn memory(read, inaccessiblemem: none) uwtable
define dso_local noundef i32 @_Z17count_output_blobRSt5dequeIP7SectionSaIS1_EE(ptr noundef nonnull readonly align 8 captures(none) dereferenceable(80) %0) local_unnamed_addr #13 {
  %2 = getelementptr inbounds nuw i8, ptr %0, i64 16
  %3 = load ptr, ptr %2, align 8, !tbaa !141, !noalias !451
  %4 = getelementptr inbounds nuw i8, ptr %0, i64 48
  %5 = load ptr, ptr %4, align 8, !tbaa !141, !noalias !454
  %.not8 = icmp eq ptr %3, %5
  br i1 %.not8, label %._crit_edge, label %.lr.ph.preheader

.lr.ph.preheader:                                 ; preds = %1
  %6 = getelementptr inbounds nuw i8, ptr %0, i64 40
  %7 = load ptr, ptr %6, align 8, !tbaa !145, !noalias !451
  %8 = getelementptr inbounds nuw i8, ptr %0, i64 32
  %9 = load ptr, ptr %8, align 8, !tbaa !149, !noalias !451
  br label %.lr.ph

._crit_edge:                                      ; preds = %_ZNSt15_Deque_iteratorIP7SectionRS1_PS1_EppEv.exit, %1
  %.0.lcssa = phi i32 [ 0, %1 ], [ %20, %_ZNSt15_Deque_iteratorIP7SectionRS1_PS1_EppEv.exit ]
  ret i32 %.0.lcssa

.lr.ph:                                           ; preds = %.lr.ph.preheader, %_ZNSt15_Deque_iteratorIP7SectionRS1_PS1_EppEv.exit
  %.012 = phi i32 [ %20, %_ZNSt15_Deque_iteratorIP7SectionRS1_PS1_EppEv.exit ], [ 0, %.lr.ph.preheader ]
  %.sroa.13.011 = phi ptr [ %.sroa.13.1, %_ZNSt15_Deque_iteratorIP7SectionRS1_PS1_EppEv.exit ], [ %7, %.lr.ph.preheader ]
  %.sroa.10.010 = phi ptr [ %.sroa.10.1, %_ZNSt15_Deque_iteratorIP7SectionRS1_PS1_EppEv.exit ], [ %9, %.lr.ph.preheader ]
  %.sroa.05.09 = phi ptr [ %.sroa.05.1, %_ZNSt15_Deque_iteratorIP7SectionRS1_PS1_EppEv.exit ], [ %3, %.lr.ph.preheader ]
  %10 = load ptr, ptr %.sroa.05.09, align 8, !tbaa !57
  %11 = getelementptr inbounds nuw i8, ptr %10, i64 504
  %12 = getelementptr inbounds nuw i8, ptr %10, i64 512
  %13 = load ptr, ptr %12, align 8, !tbaa !28
  %14 = load ptr, ptr %11, align 8, !tbaa !36
  %15 = ptrtoint ptr %13 to i64
  %16 = ptrtoint ptr %14 to i64
  %17 = sub i64 %15, %16
  %18 = lshr exact i64 %17, 5
  %19 = trunc i64 %18 to i32
  %20 = add nsw i32 %.012, %19
  %21 = getelementptr inbounds nuw i8, ptr %.sroa.05.09, i64 8
  %22 = icmp eq ptr %21, %.sroa.10.010
  br i1 %22, label %23, label %_ZNSt15_Deque_iteratorIP7SectionRS1_PS1_EppEv.exit

23:                                               ; preds = %.lr.ph
  %24 = getelementptr inbounds nuw i8, ptr %.sroa.13.011, i64 8
  %25 = load ptr, ptr %24, align 8, !tbaa !150
  %26 = getelementptr inbounds nuw i8, ptr %25, i64 512
  br label %_ZNSt15_Deque_iteratorIP7SectionRS1_PS1_EppEv.exit

_ZNSt15_Deque_iteratorIP7SectionRS1_PS1_EppEv.exit: ; preds = %.lr.ph, %23
  %.sroa.05.1 = phi ptr [ %25, %23 ], [ %21, %.lr.ph ]
  %.sroa.10.1 = phi ptr [ %26, %23 ], [ %.sroa.10.010, %.lr.ph ]
  %.sroa.13.1 = phi ptr [ %24, %23 ], [ %.sroa.13.011, %.lr.ph ]
  %.not = icmp eq ptr %.sroa.05.1, %5
  br i1 %.not, label %._crit_edge, label %.lr.ph
}